; Function Attrs: nounwind uwtable
define ptr @l_System_Uri_UriEscape_decodeUri(ptr noundef %0) local_unnamed_addr #0 {
lean_dec.exit23:
  %1 = tail call ptr @lean_string_to_utf8(ptr noundef %0) #3
  %2 = getelementptr i8, ptr %1, i64 8
  %.val = load i64, ptr %2, align 8, !tbaa !15
  %3 = shl i64 %.val, 1
  %4 = or disjoint i64 %3, 1
  %5 = inttoptr i64 %4 to ptr
  %6 = load ptr, ptr @l_System_Uri_UriEscape_decodeUri___closed__1, align 8, !tbaa !9
  %7 = tail call ptr @l_Lean_Loop_forIn_loop___at_System_Uri_UriEscape_decodeUri___spec__1(ptr poison, ptr noundef %1, ptr noundef nonnull %5, i8 noundef zeroext 37, ptr noundef %6)
  %8 = ptrtoint ptr %1 to i64
  %9 = and i64 %8, 1
  %.not = icmp eq i64 %9, 0
  br i1 %.not, label %10, label %lean_dec.exit22

10:                                               ; preds = %lean_dec.exit23
  %11 = load i32, ptr %1, align 4, !tbaa !4
  %12 = icmp sgt i32 %11, 1
  br i1 %12, label %13, label %15, !prof !11

13:                                               ; preds = %10
  %14 = add nsw i32 %11, -1
  store i32 %14, ptr %1, align 4, !tbaa !4
  br label %lean_dec.exit22

15:                                               ; preds = %10
  %.not.i24 = icmp eq i32 %11, 0
  br i1 %.not.i24, label %lean_dec.exit22, label %16

16:                                               ; preds = %15
  tail call void @lean_dec_ref_cold(ptr noundef nonnull %1) #3
  br label %lean_dec.exit22

lean_dec.exit22:                                  ; preds = %16, %15, %13, %lean_dec.exit23
  %17 = getelementptr inbounds nuw i8, ptr %7, i64 8
  %18 = load ptr, ptr %17, align 8, !tbaa !9
  %19 = ptrtoint ptr %18 to i64
  %20 = and i64 %19, 1
  %.not33 = icmp eq i64 %20, 0
  br i1 %.not33, label %21, label %lean_inc.exit

21:                                               ; preds = %lean_dec.exit22
  %.val.i = load i32, ptr %18, align 4, !tbaa !4
  %22 = icmp sgt i32 %.val.i, 0
  br i1 %22, label %23, label %25, !prof !11

23:                                               ; preds = %21
  %24 = add nuw i32 %.val.i, 1
  store i32 %24, ptr %18, align 4, !tbaa !4
  br label %lean_inc.exit

25:                                               ; preds = %21
  %.not.i32 = icmp eq i32 %.val.i, 0
  br i1 %.not.i32, label %lean_inc.exit, label %26

26:                                               ; preds = %25
  tail call void @lean_inc_ref_cold(ptr noundef nonnull %18) #3
  br label %lean_inc.exit

lean_inc.exit:                                    ; preds = %26, %25, %23, %lean_dec.exit22
  %27 = ptrtoint ptr %7 to i64
  %28 = and i64 %27, 1
  %.not34 = icmp eq i64 %28, 0
  br i1 %.not34, label %29, label %lean_dec.exit21

29:                                               ; preds = %lean_inc.exit
  %30 = load i32, ptr %7, align 4, !tbaa !4
  %31 = icmp sgt i32 %30, 1
  br i1 %31, label %32, label %34, !prof !11

32:                                               ; preds = %29
  %33 = add nsw i32 %30, -1
  store i32 %33, ptr %7, align 4, !tbaa !4
  br label %lean_dec.exit21

34:                                               ; preds = %29
  %.not.i26 = icmp eq i32 %30, 0
  br i1 %.not.i26, label %lean_dec.exit21, label %35

35:                                               ; preds = %34
  tail call void @lean_dec_ref_cold(ptr noundef nonnull %7) #3
  br label %lean_dec.exit21

lean_dec.exit21:                                  ; preds = %35, %34, %32, %lean_inc.exit
  %36 = tail call zeroext i8 @lean_string_validate_utf8(ptr noundef %18) #3
  %37 = icmp eq i8 %36, 0
  br i1 %37, label %38, label %48

38:                                               ; preds = %lean_dec.exit21
  br i1 %.not33, label %39, label %lean_dec.exit20

39:                                               ; preds = %38
  %40 = load i32, ptr %18, align 4, !tbaa !4
  %41 = icmp sgt i32 %40, 1
  br i1 %41, label %42, label %44, !prof !11

42:                                               ; preds = %39
  %43 = add nsw i32 %40, -1
  store i32 %43, ptr %18, align 4, !tbaa !4
  br label %lean_dec.exit20

44:                                               ; preds = %39
  %.not.i28 = icmp eq i32 %40, 0
  br i1 %.not.i28, label %lean_dec.exit20, label %45

45:                                               ; preds = %44
  tail call void @lean_dec_ref_cold(ptr noundef nonnull %18) #3
  br label %lean_dec.exit20

lean_dec.exit20:                                  ; preds = %45, %44, %42, %38
  %46 = load ptr, ptr @l_System_Uri_UriEscape_decodeUri___closed__5, align 8, !tbaa !9
  %47 = tail call ptr @l_panic___at_String_fromUTF8_x21___spec__1(ptr noundef %46) #3
  br label %lean_dec.exit

48:                                               ; preds = %lean_dec.exit21
  %49 = tail call ptr @lean_string_from_utf8_unchecked(ptr noundef %18) #3
  br i1 %.not33, label %50, label %lean_dec.exit

50:                                               ; preds = %48
  %51 = load i32, ptr %18, align 4, !tbaa !4
  %52 = icmp sgt i32 %51, 1
  br i1 %52, label %53, label %55, !prof !11

53:                                               ; preds = %50
  %54 = add nsw i32 %51, -1
  store i32 %54, ptr %18, align 4, !tbaa !4
  br label %lean_dec.exit

55:                                               ; preds = %50
  %.not.i30 = icmp eq i32 %51, 0
  br i1 %.not.i30, label %lean_dec.exit, label %56

56:                                               ; preds = %55
  tail call void @lean_dec_ref_cold(ptr noundef nonnull %18) #3
  br label %lean_dec.exit

lean_dec.exit:                                    ; preds = %48, %53, %55, %56, %lean_dec.exit20
  %.0 = phi ptr [ %47, %lean_dec.exit20 ], [ %49, %56 ], [ %49, %55 ], [ %49, %53 ], [ %49, %48 ]
  ret ptr %.0
}